(ikeras_frcnn.config
Config
p0
(dp1
S'use_vertical_flips'
p2
I00
sS'verbose'
p3
I01
sS'classifier_regr_std'
p4
(lp5
F8.0
aF8.0
aF4.0
aF4.0
asS'classifier_min_overlap'
p6
F0.1
sS'rot_90'
p7
I00
sS'class_mapping'
p8
(dp9
S'bg'
p10
I7
sS'wings_part'
p11
I5
sS'head_part'
p12
I0
sS'legs_part'
p13
I6
sS'back'
p14
I1
sS'tail'
p15
I4
sS'belly'
p16
I2
sS'breast'
p17
I3
ssS'pascal_voc_year'
p18
(lp19
S'VOC2007'
p20
asS'use_horizontal_flips'
p21
I00
sS'rpn_max_overlap'
p22
F0.7
sS'network'
p23
S'resnet50'
p24
sS'img_channel_mean'
p25
(lp26
F103.939
aF116.779
aF123.68
asS'balanced_classes'
p27
I00
sS'anchor_box_ratios'
p28
(lp29
(lp30
I1
aI1
aa(lp31
F0.7071067811865475
aF1.414213562373095
aa(lp32
F1.414213562373095
aF0.7071067811865475
aasS'img_scaling_factor'
p33
F1.0
sS'train_path'
p34
S'/home/e813/dataset/VOCdevkit_2007_trainval'
p35
sS'rpn_stride'
p36
I16
sS'config_filepath'
p37
S'config.pickle'
p38
sS'input_weight_path'
p39
S'/media/e813/D/weights/kerash5/resnet50/resnet50_weights_tf_dim_ordering_tf_kernels.h5'
p40
sS'num_rois'
p41
I32
sS'base_net_weights'
p42
g40
sS'anchor_box_scales'
p43
(lp44
I128
aI256
aI512
asS'rpn_min_overlap'
p45
F0.3
sS'model_path'
p46
S'/media/e813/D/weights/kerash5/frcnn/TST2/model_frcnn.vgg.hdf5'
p47
sS'classifier_max_overlap'
p48
F0.5
sS'std_scaling'
p49
F4.0
sS'im_size'
p50
I600
sS'output_weight_path'
p51
S'/media/e813/D/weights/kerash5/frcnn/tstVOC/model_frcnn.hdf5'
p52
sb.